; Function Attrs: mustprogress nounwind uwtable
define dso_local noundef i32 @_ZNK4llvm20AArch64FrameLowering22getSEHFrameIndexOffsetERKNS_15MachineFunctionEi(ptr nocapture noundef nonnull readnone align 8 dereferenceable(21) %0, ptr noundef nonnull align 8 dereferenceable(1041) %1, i32 noundef %2) local_unnamed_addr #0 align 2 {
  %4 = getelementptr inbounds nuw i8, ptr %1, i64 16
  %5 = load ptr, ptr %4, align 8
  %6 = load ptr, ptr %5, align 8
  %7 = getelementptr inbounds i8, ptr %6, i64 200
  %8 = load ptr, ptr %7, align 8
  %9 = tail call noundef ptr %8(ptr noundef nonnull align 8 dereferenceable(288) %5) #25
  %10 = getelementptr inbounds nuw i8, ptr %1, i64 48
  %11 = load ptr, ptr %10, align 8
  %12 = getelementptr inbounds nuw i8, ptr %11, i64 8
  %13 = getelementptr inbounds nuw i8, ptr %11, i64 32
  %14 = load i32, ptr %13, align 8
  %15 = add i32 %14, %2
  %16 = zext i32 %15 to i64
  %17 = load ptr, ptr %12, align 8
  %18 = getelementptr inbounds %"struct.llvm::MachineFrameInfo::StackObject", ptr %17, i64 %16
  %19 = load i64, ptr %18, align 8
  %20 = tail call noundef i32 @_ZNK4llvm19AArch64RegisterInfo23getLocalAddressRegisterERKNS_15MachineFunctionE(ptr noundef nonnull align 8 dereferenceable(320) %9, ptr noundef nonnull align 8 dereferenceable(1041) %1) #25
  %21 = icmp eq i32 %20, 2
  %sext8 = shl i64 %19, 32
  %22 = ashr exact i64 %sext8, 32
  br i1 %21, label %23, label %25

23:                                               ; preds = %3
  %24 = tail call fastcc i64 @_ZL11getFPOffsetRKN4llvm15MachineFunctionEl(ptr noundef nonnull align 8 dereferenceable(1041) %1, i64 noundef %22)
  br label %28

25:                                               ; preds = %3
  %.val = load ptr, ptr %10, align 8
  %26 = getelementptr i8, ptr %.val, i64 48
  %.val.val = load i64, ptr %26, align 8
  %27 = add nsw i64 %.val.val, %22
  br label %28

28:                                               ; preds = %25, %23
  %29 = phi i64 [ %24, %23 ], [ %27, %25 ]
  %30 = trunc i64 %29 to i32
  ret i32 %30
}